target datalayout = "e-m:e-p270:32:32-p271:32:32-p272:64:64-i64:64-i128:128-f80:128-n8:16:32:64-S128"
target triple = "x86_64-pc-linux-gnu"

%struct.VLC = type { i32, ptr, i32, i32 }

@vlc_tab_level = internal global %struct.VLC zeroinitializer, align 8
@vlc_tab_diff = internal global %struct.VLC zeroinitializer, align 8
@vlc_tab_run = internal global %struct.VLC zeroinitializer, align 8
@tab_run = internal constant [6 x [2 x i8]] [[2 x i8] c"\01\01", [2 x i8] c"\02\02", [2 x i8] c"\03\03", [2 x i8] c"\04\04", [2 x i8] c"\05\05", [2 x i8] c"\00\05"], align 1
@fft_level_exp_alt_vlc = internal global %struct.VLC zeroinitializer, align 8
@fft_level_exp_vlc = internal global %struct.VLC zeroinitializer, align 8
@fft_stereo_exp_vlc = internal global %struct.VLC zeroinitializer, align 8
@fft_stereo_exp = internal constant [7 x [2 x i8]] [[2 x i8] c"\02\02", [2 x i8] c"\03\03", [2 x i8] c"\04\04", [2 x i8] c"\05\05", [2 x i8] c"\06\06", [2 x i8] c"\00\06", [2 x i8] c"\01\01"], align 1
@fft_stereo_phase_vlc = internal global %struct.VLC zeroinitializer, align 8
@fft_stereo_phase = internal constant [9 x [2 x i8]] [[2 x i8] c"\02\02", [2 x i8] c"\01\02", [2 x i8] c"\03\04", [2 x i8] c"\07\04", [2 x i8] c"\06\05", [2 x i8] c"\05\06", [2 x i8] c"\00\06", [2 x i8] c"\04\04", [2 x i8] c"\08\02"], align 16
@vlc_tab_tone_level_idx_hi1 = internal global %struct.VLC zeroinitializer, align 8
@vlc_tab_tone_level_idx_mid = internal global %struct.VLC zeroinitializer, align 8
@vlc_tab_tone_level_idx_hi2 = internal global %struct.VLC zeroinitializer, align 8
@vlc_tab_type30 = internal global %struct.VLC zeroinitializer, align 8
@tab_type30 = internal constant [9 x [2 x i8]] [[2 x i8] c"\02\03", [2 x i8] c"\06\04", [2 x i8] c"\07\05", [2 x i8] c"\08\06", [2 x i8] c"\00\06", [2 x i8] c"\05\03", [2 x i8] c"\01\03", [2 x i8] c"\03\02", [2 x i8] c"\04\02"], align 16
@vlc_tab_type34 = internal global %struct.VLC zeroinitializer, align 8
@tab_type34 = internal constant [10 x [2 x i8]] [[2 x i8] c"\01\04", [2 x i8] c"\09\05", [2 x i8] c"\00\05", [2 x i8] c"\03\03", [2 x i8] c"\07\03", [2 x i8] c"\08\03", [2 x i8] c"\02\03", [2 x i8] c"\04\03", [2 x i8] c"\06\03", [2 x i8] c"\05\03"], align 16
@vlc_tab_fft_tone_offset = internal global [5 x %struct.VLC] zeroinitializer, align 16
@tab_fft_tone_offset_sizes = internal constant [5 x i8] c"\17\1C\1F\22%", align 1

; Function Attrs: cold nounwind optsize uwtable
define internal void @qdm2_init_vlc() #0 {
  %1 = alloca ptr, align 8
  %2 = alloca i32, align 4
  %3 = alloca i32, align 4
  call void @llvm.lifetime.start.p0(i64 8, ptr %1) #13
  store ptr @tab_fft_tone_offset, ptr %1, align 8, !tbaa !63
  call void @llvm.lifetime.start.p0(i64 4, ptr %2) #13
  store i32 0, ptr %2, align 4, !tbaa !36
  call void @build_vlc(ptr noundef @vlc_tab_level, i32 noundef 8, i32 noundef 24, ptr noundef %2, ptr noundef @tab_level) #16
  call void @build_vlc(ptr noundef @vlc_tab_diff, i32 noundef 8, i32 noundef 33, ptr noundef %2, ptr noundef @tab_diff) #16
  call void @build_vlc(ptr noundef @vlc_tab_run, i32 noundef 5, i32 noundef 6, ptr noundef %2, ptr noundef @tab_run) #16
  call void @build_vlc(ptr noundef @fft_level_exp_alt_vlc, i32 noundef 8, i32 noundef 28, ptr noundef %2, ptr noundef @fft_level_exp_alt) #16
  call void @build_vlc(ptr noundef @fft_level_exp_vlc, i32 noundef 8, i32 noundef 20, ptr noundef %2, ptr noundef @fft_level_exp) #16
  call void @build_vlc(ptr noundef @fft_stereo_exp_vlc, i32 noundef 6, i32 noundef 7, ptr noundef %2, ptr noundef @fft_stereo_exp) #16
  call void @build_vlc(ptr noundef @fft_stereo_phase_vlc, i32 noundef 6, i32 noundef 9, ptr noundef %2, ptr noundef @fft_stereo_phase) #16
  call void @build_vlc(ptr noundef @vlc_tab_tone_level_idx_hi1, i32 noundef 8, i32 noundef 20, ptr noundef %2, ptr noundef @tab_tone_level_idx_hi1) #16
  call void @build_vlc(ptr noundef @vlc_tab_tone_level_idx_mid, i32 noundef 8, i32 noundef 13, ptr noundef %2, ptr noundef @tab_tone_level_idx_mid) #16
  call void @build_vlc(ptr noundef @vlc_tab_tone_level_idx_hi2, i32 noundef 8, i32 noundef 18, ptr noundef %2, ptr noundef @tab_tone_level_idx_hi2) #16
  call void @build_vlc(ptr noundef @vlc_tab_type30, i32 noundef 6, i32 noundef 9, ptr noundef %2, ptr noundef @tab_type30) #16
  call void @build_vlc(ptr noundef @vlc_tab_type34, i32 noundef 5, i32 noundef 10, ptr noundef %2, ptr noundef @tab_type34) #16
  call void @llvm.lifetime.start.p0(i64 4, ptr %3) #13
  store i32 0, ptr %3, align 4, !tbaa !36
  br label %4

4:                                                ; preds = %26, %0
  %5 = load i32, ptr %3, align 4, !tbaa !36
  %6 = icmp slt i32 %5, 5
  br i1 %6, label %8, label %7

7:                                                ; preds = %4
  call void @llvm.lifetime.end.p0(i64 4, ptr %3) #13
  br label %29

8:                                                ; preds = %4
  %9 = load i32, ptr %3, align 4, !tbaa !36
  %10 = sext i32 %9 to i64
  %11 = getelementptr inbounds [5 x %struct.VLC], ptr @vlc_tab_fft_tone_offset, i64 0, i64 %10
  %12 = load i32, ptr %3, align 4, !tbaa !36
  %13 = sext i32 %12 to i64
  %14 = getelementptr inbounds [5 x i8], ptr @tab_fft_tone_offset_sizes, i64 0, i64 %13
  %15 = load i8, ptr %14, align 1, !tbaa !78
  %16 = zext i8 %15 to i32
  %17 = load ptr, ptr %1, align 8, !tbaa !63
  call void @build_vlc(ptr noundef %11, i32 noundef 8, i32 noundef %16, ptr noundef %2, ptr noundef %17) #16
  %18 = load i32, ptr %3, align 4, !tbaa !36
  %19 = sext i32 %18 to i64
  %20 = getelementptr inbounds [5 x i8], ptr @tab_fft_tone_offset_sizes, i64 0, i64 %19
  %21 = load i8, ptr %20, align 1, !tbaa !78
  %22 = zext i8 %21 to i32
  %23 = load ptr, ptr %1, align 8, !tbaa !63
  %24 = sext i32 %22 to i64
  %25 = getelementptr inbounds [2 x i8], ptr %23, i64 %24
  store ptr %25, ptr %1, align 8, !tbaa !63
  br label %26

26:                                               ; preds = %8
  %27 = load i32, ptr %3, align 4, !tbaa !36
  %28 = add nsw i32 %27, 1
  store i32 %28, ptr %3, align 4, !tbaa !36
  br label %4, !llvm.loop !81

29:                                               ; preds = %7
  call void @llvm.lifetime.end.p0(i64 4, ptr %2) #13
  call void @llvm.lifetime.end.p0(i64 8, ptr %1) #13
  ret void
}