; Function Attrs: cold nounwind optsize uwtable
define internal fastcc void @qdm2_init_vlc() unnamed_addr #0 {
  %1 = alloca i32, align 4
  call void @llvm.lifetime.start.p0(i64 4, ptr nonnull %1) #10
  store i32 0, ptr %1, align 4, !tbaa !75
  call fastcc void @build_vlc(ptr noundef nonnull @vlc_tab_level, i32 noundef 8, i32 noundef 24, ptr noundef %1, ptr noundef nonnull @tab_level) #11
  call fastcc void @build_vlc(ptr noundef nonnull @vlc_tab_diff, i32 noundef 8, i32 noundef 33, ptr noundef %1, ptr noundef nonnull @tab_diff) #11
  call fastcc void @build_vlc(ptr noundef nonnull @vlc_tab_run, i32 noundef 5, i32 noundef 6, ptr noundef %1, ptr noundef nonnull @tab_run) #11
  call fastcc void @build_vlc(ptr noundef nonnull @fft_level_exp_alt_vlc, i32 noundef 8, i32 noundef 28, ptr noundef %1, ptr noundef nonnull @fft_level_exp_alt) #11
  call fastcc void @build_vlc(ptr noundef nonnull @fft_level_exp_vlc, i32 noundef 8, i32 noundef 20, ptr noundef %1, ptr noundef nonnull @fft_level_exp) #11
  call fastcc void @build_vlc(ptr noundef nonnull @fft_stereo_exp_vlc, i32 noundef 6, i32 noundef 7, ptr noundef %1, ptr noundef nonnull @fft_stereo_exp) #11
  call fastcc void @build_vlc(ptr noundef nonnull @fft_stereo_phase_vlc, i32 noundef 6, i32 noundef 9, ptr noundef %1, ptr noundef nonnull @fft_stereo_phase) #11
  call fastcc void @build_vlc(ptr noundef nonnull @vlc_tab_tone_level_idx_hi1, i32 noundef 8, i32 noundef 20, ptr noundef %1, ptr noundef nonnull @tab_tone_level_idx_hi1) #11
  call fastcc void @build_vlc(ptr noundef nonnull @vlc_tab_tone_level_idx_mid, i32 noundef 8, i32 noundef 13, ptr noundef %1, ptr noundef nonnull @tab_tone_level_idx_mid) #11
  call fastcc void @build_vlc(ptr noundef nonnull @vlc_tab_tone_level_idx_hi2, i32 noundef 8, i32 noundef 18, ptr noundef %1, ptr noundef nonnull @tab_tone_level_idx_hi2) #11
  call fastcc void @build_vlc(ptr noundef nonnull @vlc_tab_type30, i32 noundef 6, i32 noundef 9, ptr noundef %1, ptr noundef nonnull @tab_type30) #11
  call fastcc void @build_vlc(ptr noundef nonnull @vlc_tab_type34, i32 noundef 5, i32 noundef 10, ptr noundef %1, ptr noundef nonnull @tab_type34) #11
  br label %3

2:                                                ; preds = %3
  call void @llvm.lifetime.end.p0(i64 4, ptr nonnull %1) #10
  ret void

3:                                                ; preds = %0, %3
  %indvars.iv = phi i64 [ 0, %0 ], [ %indvars.iv.next, %3 ]
  %.067 = phi ptr [ @tab_fft_tone_offset, %0 ], [ %9, %3 ]
  %4 = getelementptr inbounds nuw [5 x %struct.VLC], ptr @vlc_tab_fft_tone_offset, i64 0, i64 %indvars.iv
  %5 = getelementptr inbounds nuw [5 x i8], ptr @tab_fft_tone_offset_sizes, i64 0, i64 %indvars.iv
  %6 = load i8, ptr %5, align 1, !tbaa !30
  %7 = zext i8 %6 to i32
  call fastcc void @build_vlc(ptr noundef nonnull %4, i32 noundef 8, i32 noundef %7, ptr noundef %1, ptr noundef %.067) #11
  %8 = zext i8 %6 to i64
  %9 = getelementptr inbounds nuw [2 x i8], ptr %.067, i64 %8
  %indvars.iv.next = add nuw nsw i64 %indvars.iv, 1
  %exitcond.not = icmp eq i64 %indvars.iv.next, 5
  br i1 %exitcond.not, label %2, label %3, !llvm.loop !171
}